target datalayout = "e-m:e-p270:32:32-p271:32:32-p272:64:64-i64:64-i128:128-f80:128-n8:16:32:64-S128"
target triple = "x86_64-pc-linux-gnu"

%"class.cv::ppf_match_3d::Pose3D" = type { ptr, double, double, i64, i64, %"class.cv::Matx.0", double, %"class.cv::Vec", %"class.cv::Vec.2" }
%"class.cv::Matx.0" = type { [16 x double] }
%"class.cv::Vec" = type { %"class.cv::Matx.1" }
%"class.cv::Matx.1" = type { [3 x double] }
%"class.cv::Vec.2" = type { %"class.cv::Matx.3" }
%"class.cv::Matx.3" = type { [4 x double] }

; Function Attrs: mustprogress uwtable
define noundef i32 @_ZN2cv12ppf_match_3d6Pose3D8readPoseEP8_IO_FILE(ptr noundef nonnull align 8 dereferenceable(232) %0, ptr noundef %1) #4 align 2 {
  %3 = alloca i32, align 4
  %4 = alloca ptr, align 8
  %5 = alloca ptr, align 8
  %6 = alloca i32, align 4
  %7 = alloca i32, align 4
  %8 = alloca i64, align 8
  %9 = alloca i32, align 4
  store ptr %0, ptr %4, align 8, !tbaa !3
  store ptr %1, ptr %5, align 8, !tbaa !48
  %10 = load ptr, ptr %4, align 8
  call void @llvm.lifetime.start.p0(i64 4, ptr %6) #3
  store i32 7673, ptr %6, align 4, !tbaa !22
  call void @llvm.lifetime.start.p0(i64 4, ptr %7) #3
  call void @llvm.lifetime.start.p0(i64 8, ptr %8) #3
  %11 = load ptr, ptr %5, align 8, !tbaa !48
  %12 = call i64 @fread(ptr noundef %7, i64 noundef 4, i64 noundef 1, ptr noundef %11)
  store i64 %12, ptr %8, align 8, !tbaa !37
  %13 = load i64, ptr %8, align 8, !tbaa !37
  %14 = icmp ne i64 %13, 0
  br i1 %14, label %15, label %47

15:                                               ; preds = %2
  %16 = load i32, ptr %7, align 4, !tbaa !22
  %17 = load i32, ptr %6, align 4, !tbaa !22
  %18 = icmp eq i32 %16, %17
  br i1 %18, label %19, label %47

19:                                               ; preds = %15
  %20 = getelementptr inbounds nuw %"class.cv::ppf_match_3d::Pose3D", ptr %10, i32 0, i32 6
  %21 = load ptr, ptr %5, align 8, !tbaa !48
  %22 = call i64 @fread(ptr noundef %20, i64 noundef 8, i64 noundef 1, ptr noundef %21)
  store i64 %22, ptr %8, align 8, !tbaa !37
  %23 = getelementptr inbounds nuw %"class.cv::ppf_match_3d::Pose3D", ptr %10, i32 0, i32 4
  %24 = load ptr, ptr %5, align 8, !tbaa !48
  %25 = call i64 @fread(ptr noundef %23, i64 noundef 4, i64 noundef 1, ptr noundef %24)
  store i64 %25, ptr %8, align 8, !tbaa !37
  %26 = getelementptr inbounds nuw %"class.cv::ppf_match_3d::Pose3D", ptr %10, i32 0, i32 3
  %27 = load ptr, ptr %5, align 8, !tbaa !48
  %28 = call i64 @fread(ptr noundef %26, i64 noundef 4, i64 noundef 1, ptr noundef %27)
  store i64 %28, ptr %8, align 8, !tbaa !37
  %29 = getelementptr inbounds nuw %"class.cv::ppf_match_3d::Pose3D", ptr %10, i32 0, i32 5
  %30 = getelementptr inbounds nuw %"class.cv::Matx.0", ptr %29, i32 0, i32 0
  %31 = getelementptr inbounds [16 x double], ptr %30, i64 0, i64 0
  %32 = load ptr, ptr %5, align 8, !tbaa !48
  %33 = call i64 @fread(ptr noundef %31, i64 noundef 128, i64 noundef 1, ptr noundef %32)
  store i64 %33, ptr %8, align 8, !tbaa !37
  %34 = getelementptr inbounds nuw %"class.cv::ppf_match_3d::Pose3D", ptr %10, i32 0, i32 7
  %35 = getelementptr inbounds nuw %"class.cv::Matx.1", ptr %34, i32 0, i32 0
  %36 = getelementptr inbounds [3 x double], ptr %35, i64 0, i64 0
  %37 = load ptr, ptr %5, align 8, !tbaa !48
  %38 = call i64 @fread(ptr noundef %36, i64 noundef 24, i64 noundef 1, ptr noundef %37)
  store i64 %38, ptr %8, align 8, !tbaa !37
  %39 = getelementptr inbounds nuw %"class.cv::ppf_match_3d::Pose3D", ptr %10, i32 0, i32 8
  %40 = getelementptr inbounds nuw %"class.cv::Matx.3", ptr %39, i32 0, i32 0
  %41 = getelementptr inbounds [4 x double], ptr %40, i64 0, i64 0
  %42 = load ptr, ptr %5, align 8, !tbaa !48
  %43 = call i64 @fread(ptr noundef %41, i64 noundef 32, i64 noundef 1, ptr noundef %42)
  store i64 %43, ptr %8, align 8, !tbaa !37
  %44 = getelementptr inbounds nuw %"class.cv::ppf_match_3d::Pose3D", ptr %10, i32 0, i32 2
  %45 = load ptr, ptr %5, align 8, !tbaa !48
  %46 = call i64 @fread(ptr noundef %44, i64 noundef 8, i64 noundef 1, ptr noundef %45)
  store i64 %46, ptr %8, align 8, !tbaa !37
  store i32 0, ptr %3, align 4
  store i32 1, ptr %9, align 4
  br label %48

47:                                               ; preds = %15, %2
  store i32 -1, ptr %3, align 4
  store i32 1, ptr %9, align 4
  br label %48

48:                                               ; preds = %47, %19
  call void @llvm.lifetime.end.p0(i64 8, ptr %8) #3
  call void @llvm.lifetime.end.p0(i64 4, ptr %7) #3
  call void @llvm.lifetime.end.p0(i64 4, ptr %6) #3
  %49 = load i32, ptr %3, align 4
  ret i32 %49
}