; Function Attrs: mustprogress nofree nounwind uwtable
define noundef range(i32 -1, 1) i32 @_ZN2cv12ppf_match_3d6Pose3D8readPoseEP8_IO_FILE(ptr noundef nonnull align 8 captures(none) dereferenceable(232) %0, ptr noundef captures(none) %1) local_unnamed_addr #13 align 2 {
  %3 = alloca i32, align 4
  call void @llvm.lifetime.start.p0(i64 4, ptr nonnull %3) #26
  %4 = call i64 @fread(ptr noundef nonnull %3, i64 noundef 4, i64 noundef 1, ptr noundef %1)
  %.not = icmp ne i64 %4, 0
  %5 = load i32, ptr %3, align 4
  %6 = icmp eq i32 %5, 7673
  %or.cond = select i1 %.not, i1 %6, i1 false
  br i1 %or.cond, label %7, label %22

7:                                                ; preds = %2
  %8 = getelementptr inbounds nuw i8, ptr %0, i64 168
  %9 = tail call i64 @fread(ptr noundef nonnull %8, i64 noundef 8, i64 noundef 1, ptr noundef %1)
  %10 = getelementptr inbounds nuw i8, ptr %0, i64 32
  %11 = tail call i64 @fread(ptr noundef nonnull %10, i64 noundef 4, i64 noundef 1, ptr noundef %1)
  %12 = getelementptr inbounds nuw i8, ptr %0, i64 24
  %13 = tail call i64 @fread(ptr noundef nonnull %12, i64 noundef 4, i64 noundef 1, ptr noundef %1)
  %14 = getelementptr inbounds nuw i8, ptr %0, i64 40
  %15 = tail call i64 @fread(ptr noundef nonnull %14, i64 noundef 128, i64 noundef 1, ptr noundef %1)
  %16 = getelementptr inbounds nuw i8, ptr %0, i64 176
  %17 = tail call i64 @fread(ptr noundef nonnull %16, i64 noundef 24, i64 noundef 1, ptr noundef %1)
  %18 = getelementptr inbounds nuw i8, ptr %0, i64 200
  %19 = tail call i64 @fread(ptr noundef nonnull %18, i64 noundef 32, i64 noundef 1, ptr noundef %1)
  %20 = getelementptr inbounds nuw i8, ptr %0, i64 16
  %21 = tail call i64 @fread(ptr noundef nonnull %20, i64 noundef 8, i64 noundef 1, ptr noundef %1)
  br label %22

22:                                               ; preds = %2, %7
  %.0 = phi i32 [ 0, %7 ], [ -1, %2 ]
  call void @llvm.lifetime.end.p0(i64 4, ptr nonnull %3) #26
  ret i32 %.0
}